; Function Attrs: nounwind uwtable
define range(i32 -1, 1) i32 @H5CX_push() local_unnamed_addr #0 {
  %1 = tail call noalias ptr @H5FL_reg_calloc(ptr noundef nonnull @H5_H5CX_node_t_reg_free_list) #13
  %2 = icmp eq ptr %1, null
  br i1 %2, label %3, label %7

3:                                                ; preds = %0
  %4 = load i64, ptr @H5E_CONTEXT_g, align 8
  %5 = load i64, ptr @H5E_CANTALLOC_g, align 8
  %6 = tail call i32 (ptr, ptr, i32, i64, i64, ptr, ...) @H5E_printf_stack(ptr noundef nonnull @.str, ptr noundef nonnull @__func__.H5CX_push, i32 noundef 846, i64 noundef %4, i64 noundef %5, ptr noundef nonnull @.str.54) #13
  br label %23

7:                                                ; preds = %0
  %8 = load i64, ptr @H5P_LST_DATASET_XFER_ID_g, align 8
  store i64 %8, ptr %1, align 8
  %9 = load i64, ptr @H5P_LST_DATASET_CREATE_ID_g, align 8
  %10 = getelementptr inbounds i8, ptr %1, i64 48
  store i64 %9, ptr %10, align 8
  %11 = load i64, ptr @H5P_LST_DATASET_ACCESS_ID_g, align 8
  %12 = getelementptr inbounds i8, ptr %1, i64 64
  store i64 %11, ptr %12, align 8
  %13 = load i64, ptr @H5P_LST_LINK_CREATE_ID_g, align 8
  %14 = getelementptr inbounds i8, ptr %1, i64 16
  store i64 %13, ptr %14, align 8
  %15 = load i64, ptr @H5P_LST_LINK_ACCESS_ID_g, align 8
  %16 = getelementptr inbounds i8, ptr %1, i64 32
  store i64 %15, ptr %16, align 8
  %17 = load i64, ptr @H5P_LST_FILE_ACCESS_ID_g, align 8
  %18 = getelementptr inbounds i8, ptr %1, i64 80
  store i64 %17, ptr %18, align 8
  %19 = getelementptr inbounds i8, ptr %1, i64 96
  store i64 0, ptr %19, align 8
  %20 = getelementptr inbounds i8, ptr %1, i64 104
  store i32 1, ptr %20, align 8
  %21 = load ptr, ptr @H5CX_head_g, align 8
  %22 = getelementptr inbounds i8, ptr %1, i64 472
  store ptr %21, ptr %22, align 8
  store ptr %1, ptr @H5CX_head_g, align 8
  br label %23

23:                                               ; preds = %7, %3
  %.0 = phi i32 [ -1, %3 ], [ 0, %7 ]
  ret i32 %.0
}